; ModuleID = '46/454.c'
source_filename = "46/454.c"
target datalayout = "e-m:e-p270:32:32-p271:32:32-p272:64:64-i64:64-f80:128-n8:16:32:64-S128"
target triple = "x86_64-pc-linux-gnu"

@.str = private unnamed_addr constant [6 x i8] c"%d %d\00", align 1
@.str.1 = private unnamed_addr constant [3 x i8] c"%d\00", align 1
@.str.2 = private unnamed_addr constant [4 x i8] c"%d\0A\00", align 1

; Function Attrs: noinline nounwind uwtable
define dso_local i32 @main() #0 {
  %1 = alloca i32, align 4
  %2 = alloca i32, align 4
  %3 = alloca i32, align 4
  %4 = alloca i32, align 4
  %5 = alloca i32, align 4
  %6 = alloca i32, align 4
  %7 = alloca i32, align 4
  %8 = alloca [100 x [100 x i32]], align 16
  store i32 0, i32* %1, align 4
  %9 = call i32 (i8*, ...) @__isoc99_scanf(i8* getelementptr inbounds ([6 x i8], [6 x i8]* @.str, i64 0, i64 0), i32* %6, i32* %7)
  store i32 0, i32* %2, align 4
  br label %10

10:                                               ; preds = %31, %0
  %11 = load i32, i32* %2, align 4
  %12 = load i32, i32* %6, align 4
  %13 = icmp slt i32 %11, %12
  br i1 %13, label %14, label %34

14:                                               ; preds = %10
  store i32 0, i32* %3, align 4
  br label %15

15:                                               ; preds = %27, %14
  %16 = load i32, i32* %3, align 4
  %17 = load i32, i32* %7, align 4
  %18 = icmp slt i32 %16, %17
  br i1 %18, label %19, label %30

19:                                               ; preds = %15
  %20 = load i32, i32* %2, align 4
  %21 = sext i32 %20 to i64
  %22 = getelementptr inbounds [100 x [100 x i32]], [100 x [100 x i32]]* %8, i64 0, i64 %21
  %23 = load i32, i32* %3, align 4
  %24 = sext i32 %23 to i64
  %25 = getelementptr inbounds [100 x i32], [100 x i32]* %22, i64 0, i64 %24
  %26 = call i32 (i8*, ...) @__isoc99_scanf(i8* getelementptr inbounds ([3 x i8], [3 x i8]* @.str.1, i64 0, i64 0), i32* %25)
  br label %27

27:                                               ; preds = %19
  %28 = load i32, i32* %3, align 4
  %29 = add nsw i32 %28, 1
  store i32 %29, i32* %3, align 4
  br label %15

30:                                               ; preds = %15
  br label %31

31:                                               ; preds = %30
  %32 = load i32, i32* %2, align 4
  %33 = add nsw i32 %32, 1
  store i32 %33, i32* %2, align 4
  br label %10

34:                                               ; preds = %10
  store i32 0, i32* %5, align 4
  store i32 1, i32* %4, align 4
  %35 = load i32, i32* %6, align 4
  %36 = icmp eq i32 %35, 1
  br i1 %36, label %37, label %45

37:                                               ; preds = %34
  %38 = load i32, i32* %7, align 4
  %39 = icmp eq i32 %38, 1
  br i1 %39, label %40, label %45

40:                                               ; preds = %37
  %41 = getelementptr inbounds [100 x [100 x i32]], [100 x [100 x i32]]* %8, i64 0, i64 0
  %42 = getelementptr inbounds [100 x i32], [100 x i32]* %41, i64 0, i64 0
  %43 = load i32, i32* %42, align 16
  %44 = call i32 (i8*, ...) @printf(i8* getelementptr inbounds ([3 x i8], [3 x i8]* @.str.1, i64 0, i64 0), i32 %43)
  br label %192

45:                                               ; preds = %37, %34
  store i32 0, i32* %3, align 4
  br label %46

46:                                               ; preds = %191, %45
  %47 = load i32, i32* %4, align 4
  switch i32 %47, label %52 [
    i32 1, label %48
    i32 2, label %49
    i32 3, label %50
    i32 4, label %51
  ]

48:                                               ; preds = %46
  br label %53

49:                                               ; preds = %46
  br label %83

50:                                               ; preds = %46
  br label %118

51:                                               ; preds = %46
  br label %152

52:                                               ; preds = %46
  br label %53

53:                                               ; preds = %52, %48
  %54 = load i32, i32* %5, align 4
  store i32 %54, i32* %2, align 4
  br label %55

55:                                               ; preds = %79, %53
  %56 = load i32, i32* %2, align 4
  %57 = load i32, i32* %7, align 4
  %58 = load i32, i32* %5, align 4
  %59 = sub nsw i32 %57, %58
  %60 = icmp slt i32 %56, %59
  br i1 %60, label %61, label %82

61:                                               ; preds = %55
  %62 = load i32, i32* %5, align 4
  %63 = sext i32 %62 to i64
  %64 = getelementptr inbounds [100 x [100 x i32]], [100 x [100 x i32]]* %8, i64 0, i64 %63
  %65 = load i32, i32* %2, align 4
  %66 = sext i32 %65 to i64
  %67 = getelementptr inbounds [100 x i32], [100 x i32]* %64, i64 0, i64 %66
  %68 = load i32, i32* %67, align 4
  %69 = call i32 (i8*, ...) @printf(i8* getelementptr inbounds ([4 x i8], [4 x i8]* @.str.2, i64 0, i64 0), i32 %68)
  %70 = load i32, i32* %3, align 4
  %71 = add nsw i32 %70, 1
  store i32 %71, i32* %3, align 4
  %72 = load i32, i32* %3, align 4
  %73 = load i32, i32* %6, align 4
  %74 = load i32, i32* %7, align 4
  %75 = mul nsw i32 %73, %74
  %76 = icmp eq i32 %72, %75
  br i1 %76, label %77, label %78

77:                                               ; preds = %61
  br label %193

78:                                               ; preds = %61
  br label %79

79:                                               ; preds = %78
  %80 = load i32, i32* %2, align 4
  %81 = add nsw i32 %80, 1
  store i32 %81, i32* %2, align 4
  br label %55

82:                                               ; preds = %55
  br label %183

83:                                               ; preds = %49
  %84 = load i32, i32* %5, align 4
  %85 = add nsw i32 %84, 1
  store i32 %85, i32* %2, align 4
  br label %86

86:                                               ; preds = %114, %83
  %87 = load i32, i32* %2, align 4
  %88 = load i32, i32* %6, align 4
  %89 = load i32, i32* %5, align 4
  %90 = sub nsw i32 %88, %89
  %91 = sub nsw i32 %90, 1
  %92 = icmp slt i32 %87, %91
  br i1 %92, label %93, label %117

93:                                               ; preds = %86
  %94 = load i32, i32* %2, align 4
  %95 = sext i32 %94 to i64
  %96 = getelementptr inbounds [100 x [100 x i32]], [100 x [100 x i32]]* %8, i64 0, i64 %95
  %97 = load i32, i32* %7, align 4
  %98 = load i32, i32* %5, align 4
  %99 = sub nsw i32 %97, %98
  %100 = sub nsw i32 %99, 1
  %101 = sext i32 %100 to i64
  %102 = getelementptr inbounds [100 x i32], [100 x i32]* %96, i64 0, i64 %101
  %103 = load i32, i32* %102, align 4
  %104 = call i32 (i8*, ...) @printf(i8* getelementptr inbounds ([4 x i8], [4 x i8]* @.str.2, i64 0, i64 0), i32 %103)
  %105 = load i32, i32* %3, align 4
  %106 = add nsw i32 %105, 1
  store i32 %106, i32* %3, align 4
  %107 = load i32, i32* %3, align 4
  %108 = load i32, i32* %6, align 4
  %109 = load i32, i32* %7, align 4
  %110 = mul nsw i32 %108, %109
  %111 = icmp eq i32 %107, %110
  br i1 %111, label %112, label %113

112:                                              ; preds = %93
  br label %193

113:                                              ; preds = %93
  br label %114

114:                                              ; preds = %113
  %115 = load i32, i32* %2, align 4
  %116 = add nsw i32 %115, 1
  store i32 %116, i32* %2, align 4
  br label %86

117:                                              ; preds = %86
  br label %183

118:                                              ; preds = %50
  %119 = load i32, i32* %7, align 4
  %120 = load i32, i32* %5, align 4
  %121 = sub nsw i32 %119, %120
  %122 = sub nsw i32 %121, 1
  store i32 %122, i32* %2, align 4
  br label %123

123:                                              ; preds = %148, %118
  %124 = load i32, i32* %2, align 4
  %125 = load i32, i32* %5, align 4
  %126 = icmp sge i32 %124, %125
  br i1 %126, label %127, label %151

127:                                              ; preds = %123
  %128 = load i32, i32* %6, align 4
  %129 = load i32, i32* %5, align 4
  %130 = sub nsw i32 %128, %129
  %131 = sub nsw i32 %130, 1
  %132 = sext i32 %131 to i64
  %133 = getelementptr inbounds [100 x [100 x i32]], [100 x [100 x i32]]* %8, i64 0, i64 %132
  %134 = load i32, i32* %2, align 4
  %135 = sext i32 %134 to i64
  %136 = getelementptr inbounds [100 x i32], [100 x i32]* %133, i64 0, i64 %135
  %137 = load i32, i32* %136, align 4
  %138 = call i32 (i8*, ...) @printf(i8* getelementptr inbounds ([4 x i8], [4 x i8]* @.str.2, i64 0, i64 0), i32 %137)
  %139 = load i32, i32* %3, align 4
  %140 = add nsw i32 %139, 1
  store i32 %140, i32* %3, align 4
  %141 = load i32, i32* %3, align 4
  %142 = load i32, i32* %6, align 4
  %143 = load i32, i32* %7, align 4
  %144 = mul nsw i32 %142, %143
  %145 = icmp eq i32 %141, %144
  br i1 %145, label %146, label %147

146:                                              ; preds = %127
  br label %193

147:                                              ; preds = %127
  br label %148

148:                                              ; preds = %147
  %149 = load i32, i32* %2, align 4
  %150 = add nsw i32 %149, -1
  store i32 %150, i32* %2, align 4
  br label %123

151:                                              ; preds = %123
  br label %183

152:                                              ; preds = %51
  %153 = load i32, i32* %6, align 4
  %154 = load i32, i32* %5, align 4
  %155 = sub nsw i32 %153, %154
  %156 = sub nsw i32 %155, 2
  store i32 %156, i32* %2, align 4
  br label %157

157:                                              ; preds = %179, %152
  %158 = load i32, i32* %2, align 4
  %159 = load i32, i32* %5, align 4
  %160 = icmp sgt i32 %158, %159
  br i1 %160, label %161, label %182

161:                                              ; preds = %157
  %162 = load i32, i32* %2, align 4
  %163 = sext i32 %162 to i64
  %164 = getelementptr inbounds [100 x [100 x i32]], [100 x [100 x i32]]* %8, i64 0, i64 %163
  %165 = load i32, i32* %5, align 4
  %166 = sext i32 %165 to i64
  %167 = getelementptr inbounds [100 x i32], [100 x i32]* %164, i64 0, i64 %166
  %168 = load i32, i32* %167, align 4
  %169 = call i32 (i8*, ...) @printf(i8* getelementptr inbounds ([4 x i8], [4 x i8]* @.str.2, i64 0, i64 0), i32 %168)
  %170 = load i32, i32* %3, align 4
  %171 = add nsw i32 %170, 1
  store i32 %171, i32* %3, align 4
  %172 = load i32, i32* %3, align 4
  %173 = load i32, i32* %6, align 4
  %174 = load i32, i32* %7, align 4
  %175 = mul nsw i32 %173, %174
  %176 = icmp eq i32 %172, %175
  br i1 %176, label %177, label %178

177:                                              ; preds = %161
  br label %193

178:                                              ; preds = %161
  br label %179

179:                                              ; preds = %178
  %180 = load i32, i32* %2, align 4
  %181 = add nsw i32 %180, -1
  store i32 %181, i32* %2, align 4
  br label %157

182:                                              ; preds = %157
  br label %183

183:                                              ; preds = %182, %151, %117, %82
  %184 = load i32, i32* %4, align 4
  %185 = add nsw i32 %184, 1
  store i32 %185, i32* %4, align 4
  %186 = load i32, i32* %4, align 4
  %187 = icmp sgt i32 %186, 4
  br i1 %187, label %188, label %191

188:                                              ; preds = %183
  store i32 1, i32* %4, align 4
  %189 = load i32, i32* %5, align 4
  %190 = add nsw i32 %189, 1
  store i32 %190, i32* %5, align 4
  br label %191

191:                                              ; preds = %188, %183
  br label %46

192:                                              ; preds = %40
  br label %193

193:                                              ; preds = %192, %177, %146, %112, %77
  ret i32 0
}

declare dso_local i32 @__isoc99_scanf(i8*, ...) #1

declare dso_local i32 @printf(i8*, ...) #1


!llvm.module.flags = !{!0}
!llvm.ident = !{!1}

!0 = !{i32 1, !"wchar_size", i32 4}
!1 = !{!"clang version 10.0.0-4ubuntu1 "}
